; Function Attrs: mustprogress uwtable
define internal void @_ZL37plugin_if_mainwindow_get_capture_fileP11_GHashTable(ptr noundef %0) #0 {
  %2 = alloca ptr, align 8
  %3 = alloca ptr, align 8
  %4 = alloca ptr, align 8
  %5 = load ptr, ptr @_ZL20gbl_cur_main_window_, align 8
  %6 = icmp ne ptr %5, null
  %7 = icmp ne ptr %0, null
  %or.cond = and i1 %7, %6
  br i1 %or.cond, label %8, label %25

8:                                                ; preds = %1
  %9 = call i32 @g_hash_table_lookup_extended(ptr noundef nonnull %0, ptr noundef nonnull @.str.612, ptr noundef null, ptr noundef nonnull %2)
  %.not = icmp eq i32 %9, 0
  br i1 %.not, label %25, label %10

10:                                               ; preds = %8
  %11 = call i32 @g_hash_table_lookup_extended(ptr noundef nonnull %0, ptr noundef nonnull @.str.613, ptr noundef null, ptr noundef nonnull %3)
  %.not9 = icmp eq i32 %11, 0
  br i1 %.not9, label %25, label %12

12:                                               ; preds = %10
  %13 = call i32 @g_hash_table_lookup_extended(ptr noundef nonnull %0, ptr noundef nonnull @.str.614, ptr noundef null, ptr noundef nonnull %4)
  %.not10 = icmp eq i32 %13, 0
  br i1 %.not10, label %25, label %14

14:                                               ; preds = %12
  %15 = load ptr, ptr @_ZL20gbl_cur_main_window_, align 8
  %16 = getelementptr inbounds i8, ptr %15, i64 280
  %17 = call noundef zeroext i1 @_ZNK11CaptureFile7isValidEv(ptr noundef nonnull align 8 dereferenceable(48) %16)
  %18 = getelementptr inbounds i8, ptr %15, i64 296
  %19 = load ptr, ptr %18, align 8
  %.not1112 = icmp ne ptr %19, null
  %.not11.not = select i1 %17, i1 %.not1112, i1 false
  br i1 %.not11.not, label %20, label %25

20:                                               ; preds = %14
  %21 = load ptr, ptr %2, align 8
  %22 = load ptr, ptr %3, align 8
  %23 = call noundef ptr %21(ptr noundef nonnull %19, ptr noundef %22)
  %24 = load ptr, ptr %4, align 8
  store ptr %23, ptr %24, align 8
  br label %25

25:                                               ; preds = %14, %20, %1, %12, %10, %8
  ret void
}